; Function Attrs: nounwind uwtable
define internal noundef ptr @lxb_html_tokenizer_state_char_ref_decimal(ptr nocapture noundef %0, ptr noundef %1, ptr noundef %2) #1 {
  %.not22 = icmp eq ptr %1, %2
  br i1 %.not22, label %.loopexit, label %.lr.ph

.lr.ph:                                           ; preds = %3
  %4 = getelementptr inbounds i8, ptr %0, i64 220
  br label %5

5:                                                ; preds = %.lr.ph, %25
  %.01723 = phi ptr [ %1, %.lr.ph ], [ %26, %25 ]
  %6 = load i8, ptr %.01723, align 1
  %7 = zext i8 %6 to i64
  %8 = getelementptr inbounds [256 x i8], ptr @lexbor_str_res_map_num, i64 0, i64 %7
  %9 = load i8, ptr %8, align 1
  %10 = zext i8 %9 to i32
  %11 = add nsw i64 %7, -58
  %12 = icmp ult i64 %11, -10
  br i1 %12, label %13, label %19

13:                                               ; preds = %5
  %14 = getelementptr inbounds i8, ptr %0, i64 8
  %15 = load ptr, ptr %14, align 8
  store ptr %15, ptr %0, align 8
  %16 = load i8, ptr %.01723, align 1
  %17 = icmp eq i8 %16, 59
  %spec.select.idx = zext i1 %17 to i64
  %spec.select = getelementptr inbounds i8, ptr %.01723, i64 %spec.select.idx
  %18 = tail call fastcc ptr @lxb_html_tokenizer_state_char_ref_numeric_end(ptr noundef nonnull %0, ptr noundef nonnull %spec.select, ptr noundef %2)
  br label %.loopexit

19:                                               ; preds = %5
  %20 = load i32, ptr %4, align 4
  %21 = icmp ult i32 %20, 1114112
  br i1 %21, label %22, label %25

22:                                               ; preds = %19
  %23 = mul nuw nsw i32 %20, 10
  %24 = add nuw nsw i32 %23, %10
  store i32 %24, ptr %4, align 4
  br label %25

25:                                               ; preds = %22, %19
  %26 = getelementptr inbounds i8, ptr %.01723, i64 1
  %.not = icmp eq ptr %26, %2
  br i1 %.not, label %.loopexit, label %5

.loopexit:                                        ; preds = %25, %3, %13
  %.0 = phi ptr [ %18, %13 ], [ %1, %3 ], [ %2, %25 ]
  ret ptr %.0
}